; Function Attrs: mustprogress uwtable
define hidden noundef ptr @_ZN6spacer10iuc_solver8mk_proxyEP4expr(ptr noundef nonnull align 8 dereferenceable(398) %this, ptr noundef %v) local_unnamed_addr #3 align 2 {
entry:
  %m_kind.i.i.i.i = getelementptr inbounds i8, ptr %v, i64 4
  %bf.load.i.i.i.i = load i32, ptr %m_kind.i.i.i.i, align 4
  %bf.clear.i.i.i.i = and i32 %bf.load.i.i.i.i, 65535
  %cmp.i.i.i = icmp eq i32 %bf.clear.i.i.i.i, 0
  br i1 %cmp.i.i.i, label %land.rhs.i.i.i, label %_ZNK11ast_manager6is_notEPK4exprRPS0_.exit

land.rhs.i.i.i:                                   ; preds = %entry
  %m_decl.i.i.i.i = getelementptr inbounds i8, ptr %v, i64 16
  %0 = load ptr, ptr %m_decl.i.i.i.i, align 8
  %m_info.i.i.i.i.i = getelementptr inbounds i8, ptr %0, i64 24
  %1 = load ptr, ptr %m_info.i.i.i.i.i, align 8
  %tobool.not.i.i.i.i.i = icmp eq ptr %1, null
  br i1 %tobool.not.i.i.i.i.i, label %_ZNK11ast_manager6is_notEPK4exprRPS0_.exit, label %_ZNK11ast_manager6is_notEPK4expr.exit.i

_ZNK11ast_manager6is_notEPK4expr.exit.i:          ; preds = %land.rhs.i.i.i
  %2 = load i32, ptr %1, align 8
  %cmp.i.i.i.i.i.i = icmp eq i32 %2, 0
  %m_kind.i.i.i.i.i.i = getelementptr inbounds i8, ptr %1, i64 4
  %3 = load i32, ptr %m_kind.i.i.i.i.i.i, align 4
  %cmp2.i.i.i.i.i.i = icmp eq i32 %3, 8
  %4 = select i1 %cmp.i.i.i.i.i.i, i1 %cmp2.i.i.i.i.i.i, i1 false
  br i1 %4, label %land.lhs.true.i, label %_ZNK11ast_manager6is_notEPK4exprRPS0_.exit

land.lhs.true.i:                                  ; preds = %_ZNK11ast_manager6is_notEPK4expr.exit.i
  %m_num_args.i.i = getelementptr inbounds i8, ptr %v, i64 24
  %5 = load i32, ptr %m_num_args.i.i, align 8
  %cmp.i = icmp eq i32 %5, 1
  br i1 %cmp.i, label %if.then.i, label %_ZNK11ast_manager6is_notEPK4exprRPS0_.exit

if.then.i:                                        ; preds = %land.lhs.true.i
  %m_args.i.i = getelementptr inbounds i8, ptr %v, i64 32
  %6 = load ptr, ptr %m_args.i.i, align 8
  %m_kind.i.i.phi.trans.insert = getelementptr inbounds i8, ptr %6, i64 4
  %bf.load.i.i.pre = load i32, ptr %m_kind.i.i.phi.trans.insert, align 4
  br label %_ZNK11ast_manager6is_notEPK4exprRPS0_.exit

_ZNK11ast_manager6is_notEPK4exprRPS0_.exit:       ; preds = %entry, %land.rhs.i.i.i, %_ZNK11ast_manager6is_notEPK4expr.exit.i, %land.lhs.true.i, %if.then.i
  %bf.load.i.i = phi i32 [ %bf.load.i.i.i.i, %land.rhs.i.i.i ], [ %bf.load.i.i.pre, %if.then.i ], [ %bf.load.i.i.i.i, %land.lhs.true.i ], [ %bf.load.i.i.i.i, %_ZNK11ast_manager6is_notEPK4expr.exit.i ], [ %bf.load.i.i.i.i, %entry ]
  %e.0 = phi ptr [ %v, %land.rhs.i.i.i ], [ %6, %if.then.i ], [ %v, %land.lhs.true.i ], [ %v, %_ZNK11ast_manager6is_notEPK4expr.exit.i ], [ %v, %entry ]
  %bf.clear.i.i = and i32 %bf.load.i.i, 65535
  %cmp.i4 = icmp eq i32 %bf.clear.i.i, 0
  br i1 %cmp.i4, label %land.lhs.true.i5, label %if.end

land.lhs.true.i5:                                 ; preds = %_ZNK11ast_manager6is_notEPK4exprRPS0_.exit
  %m_num_args.i.i6 = getelementptr inbounds i8, ptr %e.0, i64 24
  %7 = load i32, ptr %m_num_args.i.i6, align 8
  %cmp3.i = icmp eq i32 %7, 0
  br i1 %cmp3.i, label %land.rhs.i, label %if.end

land.rhs.i:                                       ; preds = %land.lhs.true.i5
  %m_decl.i.i.i = getelementptr inbounds i8, ptr %e.0, i64 16
  %8 = load ptr, ptr %m_decl.i.i.i, align 8
  %m_info.i.i.i = getelementptr inbounds i8, ptr %8, i64 24
  %9 = load ptr, ptr %m_info.i.i.i, align 8
  %cmp.i.i.i7 = icmp eq ptr %9, null
  br i1 %cmp.i.i.i7, label %return, label %_Z17is_uninterp_constPK4expr.exit

_Z17is_uninterp_constPK4expr.exit:                ; preds = %land.rhs.i
  %10 = load i32, ptr %9, align 8
  %11 = icmp eq i32 %10, -1
  br i1 %11, label %return, label %if.end

if.end:                                           ; preds = %_ZNK11ast_manager6is_notEPK4exprRPS0_.exit, %land.lhs.true.i5, %_Z17is_uninterp_constPK4expr.exit
  %m_defs = getelementptr inbounds i8, ptr %this, i64 128
  %12 = load ptr, ptr %m_defs, align 8
  %cmp.i8 = icmp eq ptr %12, null
  br i1 %cmp.i8, label %cond.false, label %_ZNK6vectorIN6spacer10iuc_solver11def_managerELb1EjE5emptyEv.exit

_ZNK6vectorIN6spacer10iuc_solver11def_managerELb1EjE5emptyEv.exit: ; preds = %if.end
  %arrayidx.i = getelementptr inbounds i8, ptr %12, i64 -4
  %13 = load i32, ptr %arrayidx.i, align 4
  %cmp3.i9 = icmp eq i32 %13, 0
  br i1 %cmp3.i9, label %cond.false, label %_ZN6vectorIN6spacer10iuc_solver11def_managerELb1EjE4backEv.exit

_ZN6vectorIN6spacer10iuc_solver11def_managerELb1EjE4backEv.exit: ; preds = %_ZNK6vectorIN6spacer10iuc_solver11def_managerELb1EjE5emptyEv.exit
  %14 = add i32 %13, -1
  %15 = zext i32 %14 to i64
  %arrayidx.i1.i = getelementptr inbounds %"struct.spacer::iuc_solver::def_manager", ptr %12, i64 %15
  br label %cond.end

cond.false:                                       ; preds = %if.end, %_ZNK6vectorIN6spacer10iuc_solver11def_managerELb1EjE5emptyEv.exit
  %m_base_defs = getelementptr inbounds i8, ptr %this, i64 136
  br label %cond.end

cond.end:                                         ; preds = %cond.false, %_ZN6vectorIN6spacer10iuc_solver11def_managerELb1EjE4backEv.exit
  %cond-lvalue = phi ptr [ %arrayidx.i1.i, %_ZN6vectorIN6spacer10iuc_solver11def_managerELb1EjE4backEv.exit ], [ %m_base_defs, %cond.false ]
  %call7 = tail call noundef ptr @_ZN6spacer10iuc_solver11def_manager8mk_proxyEP4expr(ptr noundef nonnull align 8 dereferenceable(72) %cond-lvalue, ptr noundef nonnull %v)
  br label %return

return:                                           ; preds = %land.rhs.i, %_Z17is_uninterp_constPK4expr.exit, %cond.end
  %retval.0 = phi ptr [ %call7, %cond.end ], [ %v, %_Z17is_uninterp_constPK4expr.exit ], [ %v, %land.rhs.i ]
  ret ptr %retval.0
}